; Function Attrs: mustprogress nounwind uwtable
define dso_local void @_ZNK4node4quic7Session27CollectSessionTicketAppDataEPNS0_13SessionTicket7AppDataE(ptr nocapture noundef nonnull readonly align 8 dereferenceable(2616) %this, ptr noundef %app_data) unnamed_addr #5 align 2 {
entry:
  %application_ = getelementptr inbounds i8, ptr %this, i64 2136
  %0 = load ptr, ptr %application_, align 8
  %vtable = load ptr, ptr %0, align 8
  %vfn = getelementptr inbounds i8, ptr %vtable, i64 128
  %1 = load ptr, ptr %vfn, align 8
  tail call void %1(ptr noundef nonnull align 8 dereferenceable(16) %0, ptr noundef %app_data) #28
  ret void
}